; Function Attrs: uwtable
define noundef ptr @_ZThn16_N20QualityMapperFactory11getEditToolEPK7QAction(ptr nocapture noundef readonly %0, ptr noundef readnone %1) unnamed_addr #12 align 2 personality ptr @__gxx_personality_v0 {
  %3 = getelementptr inbounds i8, ptr %0, i64 48
  %4 = load ptr, ptr %3, align 8
  %5 = icmp eq ptr %4, %1
  br i1 %5, label %6, label %_ZN20QualityMapperFactory11getEditToolEPK7QAction.exit

6:                                                ; preds = %2
  %7 = tail call noalias noundef nonnull dereferenceable(56) ptr @_Znwm(i64 noundef 56) #20
  invoke void @_ZN19QualityMapperPluginC1Ev(ptr noundef nonnull align 8 dereferenceable(49) %7)
          to label %8 unwind label %10

8:                                                ; preds = %6
  %9 = getelementptr inbounds i8, ptr %7, i64 16
  br label %_ZN20QualityMapperFactory11getEditToolEPK7QAction.exit

10:                                               ; preds = %6
  %11 = landingpad { ptr, i32 }
          cleanup
  tail call void @_ZdlPv(ptr noundef nonnull %7) #16
  resume { ptr, i32 } %11

_ZN20QualityMapperFactory11getEditToolEPK7QAction.exit: ; preds = %2, %8
  %.0.i = phi ptr [ %9, %8 ], [ null, %2 ]
  ret ptr %.0.i
}